; Function Attrs: nounwind uwtable
define internal void @hmac_free(ptr noundef %0) #0 {
  %.not = icmp eq ptr %0, null
  br i1 %.not, label %10, label %2

2:                                                ; preds = %1
  %3 = getelementptr inbounds nuw i8, ptr %0, i64 8
  %4 = load ptr, ptr %3, align 8, !tbaa !3
  tail call void @HMAC_CTX_free(ptr noundef %4) #7
  %5 = getelementptr inbounds nuw i8, ptr %0, i64 16
  tail call void @ossl_prov_digest_reset(ptr noundef nonnull %5) #7
  %6 = getelementptr inbounds nuw i8, ptr %0, i64 40
  %7 = load ptr, ptr %6, align 8, !tbaa !25
  %8 = getelementptr inbounds nuw i8, ptr %0, i64 48
  %9 = load i64, ptr %8, align 8, !tbaa !26
  tail call void @CRYPTO_secure_clear_free(ptr noundef %7, i64 noundef %9, ptr noundef nonnull @.str, i32 noundef 101) #7
  tail call void @CRYPTO_free(ptr noundef nonnull %0, ptr noundef nonnull @.str, i32 noundef 102) #7
  br label %10

10:                                               ; preds = %2, %1
  ret void
}